target datalayout = "e-m:e-p270:32:32-p271:32:32-p272:64:64-i64:64-i128:128-f80:128-n8:16:32:64-S128"
target triple = "x86_64-pc-linux-gnu"

%struct._lv_rb_t = type { ptr, ptr, i64 }
%struct._lv_rb_node_t = type { ptr, ptr, ptr, i32, ptr }

; Function Attrs: nounwind uwtable
define void @lv_rb_destroy(ptr noundef %0) #0 {
  %2 = alloca ptr, align 8
  %3 = alloca ptr, align 8
  %4 = alloca ptr, align 8
  store ptr %0, ptr %2, align 8, !tbaa !3
  br label %5

5:                                                ; preds = %1
  %6 = load ptr, ptr %2, align 8, !tbaa !3
  %7 = icmp ne ptr %6, null
  br i1 %7, label %12, label %8

8:                                                ; preds = %5
  br label %9

9:                                                ; preds = %8
  br label %10

10:                                               ; preds = %9
  br label %11

11:                                               ; preds = %10, %11
  br label %11

12:                                               ; preds = %5
  br label %13

13:                                               ; preds = %12
  %14 = load ptr, ptr %2, align 8, !tbaa !3
  %15 = icmp eq ptr %14, null
  br i1 %15, label %16, label %17

16:                                               ; preds = %13
  br label %72

17:                                               ; preds = %13
  call void @llvm.lifetime.start.p0(i64 8, ptr %3) #4
  %18 = load ptr, ptr %2, align 8, !tbaa !3
  %19 = getelementptr inbounds nuw %struct._lv_rb_t, ptr %18, i32 0, i32 0
  %20 = load ptr, ptr %19, align 8, !tbaa !11
  store ptr %20, ptr %3, align 8, !tbaa !16
  call void @llvm.lifetime.start.p0(i64 8, ptr %4) #4
  store ptr null, ptr %4, align 8, !tbaa !16
  br label %21

21:                                               ; preds = %68, %17
  %22 = load ptr, ptr %3, align 8, !tbaa !16
  %23 = icmp ne ptr %22, null
  br i1 %23, label %24, label %69

24:                                               ; preds = %21
  %25 = load ptr, ptr %3, align 8, !tbaa !16
  %26 = getelementptr inbounds nuw %struct._lv_rb_node_t, ptr %25, i32 0, i32 1
  %27 = load ptr, ptr %26, align 8, !tbaa !22
  %28 = icmp ne ptr %27, null
  br i1 %28, label %29, label %33

29:                                               ; preds = %24
  %30 = load ptr, ptr %3, align 8, !tbaa !16
  %31 = getelementptr inbounds nuw %struct._lv_rb_node_t, ptr %30, i32 0, i32 1
  %32 = load ptr, ptr %31, align 8, !tbaa !22
  store ptr %32, ptr %3, align 8, !tbaa !16
  br label %68

33:                                               ; preds = %24
  %34 = load ptr, ptr %3, align 8, !tbaa !16
  %35 = getelementptr inbounds nuw %struct._lv_rb_node_t, ptr %34, i32 0, i32 2
  %36 = load ptr, ptr %35, align 8, !tbaa !23
  %37 = icmp ne ptr %36, null
  br i1 %37, label %38, label %42

38:                                               ; preds = %33
  %39 = load ptr, ptr %3, align 8, !tbaa !16
  %40 = getelementptr inbounds nuw %struct._lv_rb_node_t, ptr %39, i32 0, i32 2
  %41 = load ptr, ptr %40, align 8, !tbaa !23
  store ptr %41, ptr %3, align 8, !tbaa !16
  br label %67

42:                                               ; preds = %33
  %43 = load ptr, ptr %3, align 8, !tbaa !16
  %44 = getelementptr inbounds nuw %struct._lv_rb_node_t, ptr %43, i32 0, i32 0
  %45 = load ptr, ptr %44, align 8, !tbaa !17
  store ptr %45, ptr %4, align 8, !tbaa !16
  %46 = load ptr, ptr %4, align 8, !tbaa !16
  %47 = icmp ne ptr %46, null
  br i1 %47, label %48, label %61

48:                                               ; preds = %42
  %49 = load ptr, ptr %4, align 8, !tbaa !16
  %50 = getelementptr inbounds nuw %struct._lv_rb_node_t, ptr %49, i32 0, i32 1
  %51 = load ptr, ptr %50, align 8, !tbaa !22
  %52 = load ptr, ptr %3, align 8, !tbaa !16
  %53 = icmp eq ptr %51, %52
  br i1 %53, label %54, label %57

54:                                               ; preds = %48
  %55 = load ptr, ptr %4, align 8, !tbaa !16
  %56 = getelementptr inbounds nuw %struct._lv_rb_node_t, ptr %55, i32 0, i32 1
  store ptr null, ptr %56, align 8, !tbaa !22
  br label %60

57:                                               ; preds = %48
  %58 = load ptr, ptr %4, align 8, !tbaa !16
  %59 = getelementptr inbounds nuw %struct._lv_rb_node_t, ptr %58, i32 0, i32 2
  store ptr null, ptr %59, align 8, !tbaa !23
  br label %60

60:                                               ; preds = %57, %54
  br label %61

61:                                               ; preds = %60, %42
  %62 = load ptr, ptr %3, align 8, !tbaa !16
  %63 = getelementptr inbounds nuw %struct._lv_rb_node_t, ptr %62, i32 0, i32 4
  %64 = load ptr, ptr %63, align 8, !tbaa !21
  call void @lv_free(ptr noundef %64)
  %65 = load ptr, ptr %3, align 8, !tbaa !16
  call void @lv_free(ptr noundef %65)
  %66 = load ptr, ptr %4, align 8, !tbaa !16
  store ptr %66, ptr %3, align 8, !tbaa !16
  br label %67

67:                                               ; preds = %61, %38
  br label %68

68:                                               ; preds = %67, %29
  br label %21, !llvm.loop !32

69:                                               ; preds = %21
  %70 = load ptr, ptr %2, align 8, !tbaa !3
  %71 = getelementptr inbounds nuw %struct._lv_rb_t, ptr %70, i32 0, i32 0
  store ptr null, ptr %71, align 8, !tbaa !11
  call void @llvm.lifetime.end.p0(i64 8, ptr %4) #4
  call void @llvm.lifetime.end.p0(i64 8, ptr %3) #4
  br label %72

72:                                               ; preds = %69, %16
  ret void
}