; Function Attrs: nounwind uwtable
define void @lv_rb_destroy(ptr noundef captures(address_is_null) %0) local_unnamed_addr #0 {
  %.not = icmp eq ptr %0, null
  br i1 %.not, label %.preheader, label %2

.preheader:                                       ; preds = %1, %.preheader
  br label %.preheader

2:                                                ; preds = %1
  %3 = load ptr, ptr %0, align 8, !tbaa !3
  %.not2226 = icmp eq ptr %3, null
  br i1 %.not2226, label %._crit_edge, label %.lr.ph

.lr.ph:                                           ; preds = %2, %21
  %.027 = phi ptr [ %.1, %21 ], [ %3, %2 ]
  %4 = getelementptr inbounds nuw i8, ptr %.027, i64 8
  %5 = load ptr, ptr %4, align 8, !tbaa !21
  %.not23 = icmp eq ptr %5, null
  br i1 %.not23, label %6, label %21

6:                                                ; preds = %.lr.ph
  %7 = getelementptr inbounds nuw i8, ptr %.027, i64 16
  %8 = load ptr, ptr %7, align 8, !tbaa !22
  %.not24 = icmp eq ptr %8, null
  br i1 %.not24, label %9, label %21

9:                                                ; preds = %6
  %10 = load ptr, ptr %.027, align 8, !tbaa !18
  %.not25 = icmp eq ptr %10, null
  br i1 %.not25, label %18, label %11

11:                                               ; preds = %9
  %12 = getelementptr inbounds nuw i8, ptr %10, i64 8
  %13 = load ptr, ptr %12, align 8, !tbaa !21
  %14 = icmp eq ptr %13, %.027
  br i1 %14, label %15, label %16

15:                                               ; preds = %11
  store ptr null, ptr %12, align 8, !tbaa !21
  br label %18

16:                                               ; preds = %11
  %17 = getelementptr inbounds nuw i8, ptr %10, i64 16
  store ptr null, ptr %17, align 8, !tbaa !22
  br label %18

18:                                               ; preds = %15, %16, %9
  %19 = getelementptr inbounds nuw i8, ptr %.027, i64 32
  %20 = load ptr, ptr %19, align 8, !tbaa !13
  tail call void @lv_free(ptr noundef %20) #5
  tail call void @lv_free(ptr noundef nonnull %.027) #5
  br label %21

21:                                               ; preds = %6, %.lr.ph, %18
  %.1 = phi ptr [ %10, %18 ], [ %5, %.lr.ph ], [ %8, %6 ]
  %.not22 = icmp eq ptr %.1, null
  br i1 %.not22, label %._crit_edge, label %.lr.ph, !llvm.loop !26

._crit_edge:                                      ; preds = %21, %2
  store ptr null, ptr %0, align 8, !tbaa !3
  ret void
}